target datalayout = "e-m:e-p270:32:32-p271:32:32-p272:64:64-i64:64-i128:128-f80:128-n8:16:32:64-S128"
target triple = "x86_64-pc-linux-gnu"

@wal_segment_size = dso_local global i32 16777216, align 4
@UsableBytesInSegment = internal global i32 0, align 4

; Function Attrs: nounwind uwtable
define internal i64 @XLogBytePosToEndRecPtr(i64 noundef %0) #0 {
  %2 = alloca i64, align 8
  %3 = alloca i64, align 8
  %4 = alloca i64, align 8
  %5 = alloca i64, align 8
  %6 = alloca i32, align 4
  %7 = alloca i64, align 8
  store i64 %0, ptr %2, align 8
  call void @llvm.lifetime.start.p0(i64 8, ptr %3) #16
  call void @llvm.lifetime.start.p0(i64 8, ptr %4) #16
  call void @llvm.lifetime.start.p0(i64 8, ptr %5) #16
  call void @llvm.lifetime.start.p0(i64 4, ptr %6) #16
  call void @llvm.lifetime.start.p0(i64 8, ptr %7) #16
  %8 = load i64, ptr %2, align 8
  %9 = load i32, ptr @UsableBytesInSegment, align 4
  %10 = sext i32 %9 to i64
  %11 = udiv i64 %8, %10
  store i64 %11, ptr %3, align 8
  %12 = load i64, ptr %2, align 8
  %13 = load i32, ptr @UsableBytesInSegment, align 4
  %14 = sext i32 %13 to i64
  %15 = urem i64 %12, %14
  store i64 %15, ptr %5, align 8
  %16 = load i64, ptr %5, align 8
  %17 = icmp ult i64 %16, 8152
  br i1 %17, label %18, label %27

18:                                               ; preds = %1
  %19 = load i64, ptr %5, align 8
  %20 = icmp eq i64 %19, 0
  br i1 %20, label %21, label %22

21:                                               ; preds = %18
  store i32 0, ptr %6, align 4
  br label %26

22:                                               ; preds = %18
  %23 = load i64, ptr %5, align 8
  %24 = add i64 %23, 40
  %25 = trunc i64 %24 to i32
  store i32 %25, ptr %6, align 4
  br label %26

26:                                               ; preds = %22, %21
  br label %56

27:                                               ; preds = %1
  store i32 8192, ptr %6, align 4
  %28 = load i64, ptr %5, align 8
  %29 = sub i64 %28, 8152
  store i64 %29, ptr %5, align 8
  %30 = load i64, ptr %5, align 8
  %31 = udiv i64 %30, 8168
  store i64 %31, ptr %4, align 8
  %32 = load i64, ptr %5, align 8
  %33 = urem i64 %32, 8168
  store i64 %33, ptr %5, align 8
  %34 = load i64, ptr %5, align 8
  %35 = icmp eq i64 %34, 0
  br i1 %35, label %36, label %45

36:                                               ; preds = %27
  %37 = load i64, ptr %4, align 8
  %38 = mul i64 %37, 8192
  %39 = load i64, ptr %5, align 8
  %40 = add i64 %38, %39
  %41 = load i32, ptr %6, align 4
  %42 = zext i32 %41 to i64
  %43 = add i64 %42, %40
  %44 = trunc i64 %43 to i32
  store i32 %44, ptr %6, align 4
  br label %55

45:                                               ; preds = %27
  %46 = load i64, ptr %4, align 8
  %47 = mul i64 %46, 8192
  %48 = load i64, ptr %5, align 8
  %49 = add i64 %47, %48
  %50 = add i64 %49, 24
  %51 = load i32, ptr %6, align 4
  %52 = zext i32 %51 to i64
  %53 = add i64 %52, %50
  %54 = trunc i64 %53 to i32
  store i32 %54, ptr %6, align 4
  br label %55

55:                                               ; preds = %45, %36
  br label %56

56:                                               ; preds = %55, %26
  %57 = load i64, ptr %3, align 8
  %58 = load i32, ptr @wal_segment_size, align 4
  %59 = sext i32 %58 to i64
  %60 = mul i64 %57, %59
  %61 = load i32, ptr %6, align 4
  %62 = zext i32 %61 to i64
  %63 = add i64 %60, %62
  store i64 %63, ptr %7, align 8
  %64 = load i64, ptr %7, align 8
  call void @llvm.lifetime.end.p0(i64 8, ptr %7) #16
  call void @llvm.lifetime.end.p0(i64 4, ptr %6) #16
  call void @llvm.lifetime.end.p0(i64 8, ptr %5) #16
  call void @llvm.lifetime.end.p0(i64 8, ptr %4) #16
  call void @llvm.lifetime.end.p0(i64 8, ptr %3) #16
  ret i64 %64
}