; Function Attrs: mustprogress nofree norecurse nosync nounwind willreturn memory(read, argmem: none, inaccessiblemem: none) uwtable
define internal fastcc i64 @XLogBytePosToEndRecPtr(i64 noundef %0) unnamed_addr #9 {
  %2 = load i32, ptr @UsableBytesInSegment, align 4
  %3 = sext i32 %2 to i64
  %4 = urem i64 %0, %3
  %5 = udiv i64 %0, %3
  %6 = icmp ult i64 %4, 8152
  br i1 %6, label %7, label %10

7:                                                ; preds = %1
  %8 = icmp eq i64 %4, 0
  %9 = add nuw nsw i64 %4, 40
  %spec.select = select i1 %8, i64 0, i64 %9
  br label %21

10:                                               ; preds = %1
  %11 = add i64 %4, -8152
  %12 = udiv i64 %11, 8168
  %13 = urem i64 %11, 8168
  %14 = icmp eq i64 %13, 0
  %15 = shl i64 %12, 13
  br i1 %14, label %16, label %18

16:                                               ; preds = %10
  %17 = add i64 %15, 8192
  br label %21

18:                                               ; preds = %10
  %19 = add nuw nsw i64 %13, 8216
  %20 = add i64 %19, %15
  br label %21

21:                                               ; preds = %7, %16, %18
  %.0 = phi i64 [ %17, %16 ], [ %20, %18 ], [ %spec.select, %7 ]
  %22 = load i32, ptr @wal_segment_size, align 4
  %23 = sext i32 %22 to i64
  %24 = mul i64 %5, %23
  %25 = and i64 %.0, 4294967295
  %26 = add i64 %24, %25
  ret i64 %26
}